; Function Attrs: mustprogress uwtable
define internal void @"_ZN4absl12lts_2024072222internal_any_invocable12LocalInvokerILb0EvRZN17grpc_event_engine12experimental12AresResolver18CheckSocketsLockedEvE3$_2JNS0_6StatusEEEET0_PNS1_15TypeErasedStateEDpNS1_18ForwardedParameterIT2_E4typeE"(ptr noundef readonly captures(none) %0, ptr noundef nonnull align 8 captures(none) dereferenceable(8) %1) #3 personality ptr @__gxx_personality_v0 {
  %3 = alloca %"class.absl::lts_20240722::Status", align 8
  %4 = alloca %"class.absl::lts_20240722::Status", align 8
  %.val = load ptr, ptr %0, align 8, !tbaa !221
  %5 = getelementptr i8, ptr %0, i64 8
  %.val3 = load ptr, ptr %5, align 8, !tbaa !237
  call void @llvm.lifetime.start.p0(i64 8, ptr nonnull %4)
  %6 = load i64, ptr %1, align 8, !tbaa !18
  store i64 %6, ptr %4, align 8, !tbaa !18
  store i64 55, ptr %1, align 8, !tbaa !18
  call void @llvm.lifetime.start.p0(i64 8, ptr nonnull %3)
  store i64 %6, ptr %3, align 8, !tbaa !18
  %7 = and i64 %6, 1
  %.not.i.i.i.i.i.i.i = icmp eq i64 %7, 0
  br i1 %.not.i.i.i.i.i.i.i, label %8, label %_ZN4absl12lts_202407226StatusC2ERKS1_.exit.i.i.i.i.i

8:                                                ; preds = %2
  %9 = inttoptr i64 %6 to ptr
  %10 = atomicrmw add ptr %9, i32 1 monotonic, align 4
  br label %_ZN4absl12lts_202407226StatusC2ERKS1_.exit.i.i.i.i.i

_ZN4absl12lts_202407226StatusC2ERKS1_.exit.i.i.i.i.i: ; preds = %8, %2
  invoke void @_ZN17grpc_event_engine12experimental12AresResolver10OnWritableEPNS1_6FdNodeEN4absl12lts_202407226StatusE(ptr noundef nonnull align 8 dereferenceable(152) %.val, ptr noundef %.val3, ptr noundef nonnull %3)
          to label %11 unwind label %.body.i.i.i.i

11:                                               ; preds = %_ZN4absl12lts_202407226StatusC2ERKS1_.exit.i.i.i.i.i
  %12 = load i64, ptr %3, align 8, !tbaa !18
  %13 = and i64 %12, 1
  %.not.i.i2.i.i.i.i.i = icmp eq i64 %13, 0
  br i1 %.not.i.i2.i.i.i.i.i, label %14, label %20

14:                                               ; preds = %11
  %15 = inttoptr i64 %12 to ptr
  invoke void @_ZNK4absl12lts_2024072215status_internal9StatusRep5UnrefEv(ptr noundef nonnull align 8 dereferenceable(48) %15)
          to label %20 unwind label %16

16:                                               ; preds = %14
  %17 = landingpad { ptr, i32 }
          catch ptr null
  %18 = extractvalue { ptr, i32 } %17, 0
  call void @__clang_call_terminate(ptr %18) #37
  unreachable

.body.i.i.i.i:                                    ; preds = %_ZN4absl12lts_202407226StatusC2ERKS1_.exit.i.i.i.i.i
  %19 = landingpad { ptr, i32 }
          cleanup
  call void @_ZN4absl12lts_202407226StatusD2Ev(ptr noundef nonnull align 8 dereferenceable(8) %3) #34
  call void @_ZN4absl12lts_202407226StatusD2Ev(ptr noundef nonnull align 8 dereferenceable(8) %4) #34
  resume { ptr, i32 } %19

20:                                               ; preds = %14, %11
  call void @llvm.lifetime.end.p0(i64 8, ptr nonnull %3)
  br i1 %.not.i.i.i.i.i.i.i, label %21, label %"_ZN4absl12lts_2024072222internal_any_invocable7InvokeRIvRZN17grpc_event_engine12experimental12AresResolver18CheckSocketsLockedEvE3$_2JNS0_6StatusEEvEEvOT0_DpOT1_.exit"

21:                                               ; preds = %20
  %22 = inttoptr i64 %6 to ptr
  invoke void @_ZNK4absl12lts_2024072215status_internal9StatusRep5UnrefEv(ptr noundef nonnull align 8 dereferenceable(48) %22)
          to label %"_ZN4absl12lts_2024072222internal_any_invocable7InvokeRIvRZN17grpc_event_engine12experimental12AresResolver18CheckSocketsLockedEvE3$_2JNS0_6StatusEEvEEvOT0_DpOT1_.exit" unwind label %23

23:                                               ; preds = %21
  %24 = landingpad { ptr, i32 }
          catch ptr null
  %25 = extractvalue { ptr, i32 } %24, 0
  call void @__clang_call_terminate(ptr %25) #37
  unreachable

"_ZN4absl12lts_2024072222internal_any_invocable7InvokeRIvRZN17grpc_event_engine12experimental12AresResolver18CheckSocketsLockedEvE3$_2JNS0_6StatusEEvEEvOT0_DpOT1_.exit": ; preds = %20, %21
  call void @llvm.lifetime.end.p0(i64 8, ptr nonnull %4)
  ret void
}